target datalayout = "e-m:e-p270:32:32-p271:32:32-p272:64:64-i64:64-i128:128-f80:128-n8:16:32:64-S128"
target triple = "x86_64-pc-linux-gnu"

%"class.llvm::StringRef" = type { ptr, i64 }
%"class.llvm::SmallVectorBase" = type { ptr, i32, i32 }
%"class.llvm::DebugHandlerBase" = type { ptr, ptr, ptr, %"class.llvm::DebugLoc", ptr, ptr, %"class.llvm::DebugLoc", ptr, ptr, %"class.llvm::LexicalScopes", %"class.llvm::DbgValueHistoryMap", %"class.llvm::DbgLabelInstrMap", %"class.llvm::DenseMap.64", %"class.llvm::DenseMap.64", %"class.llvm::InstructionOrdering" }
%"class.llvm::DebugLoc" = type { %"class.llvm::TypedTrackingMDRef" }
%"class.llvm::TypedTrackingMDRef" = type { %"class.llvm::TrackingMDRef" }
%"class.llvm::TrackingMDRef" = type { ptr }
%"class.llvm::LexicalScopes" = type { ptr, %"class.std::unordered_map", %"class.std::unordered_map.27", %"class.std::unordered_map", %"class.llvm::SmallVector.45", ptr, %"class.llvm::DenseMap" }
%"class.std::unordered_map.27" = type { %"class.std::_Hashtable.28" }
%"class.std::_Hashtable.28" = type { ptr, i64, %"struct.std::__detail::_Hash_node_base", i64, %"struct.std::__detail::_Prime_rehash_policy", ptr }
%"struct.std::__detail::_Hash_node_base" = type { ptr }
%"struct.std::__detail::_Prime_rehash_policy" = type { float, i64 }
%"class.std::unordered_map" = type { %"class.std::_Hashtable" }
%"class.std::_Hashtable" = type { ptr, i64, %"struct.std::__detail::_Hash_node_base", i64, %"struct.std::__detail::_Prime_rehash_policy", ptr }
%"class.llvm::SmallVector.45" = type { %"class.llvm::SmallVectorImpl.46", %"struct.llvm::SmallVectorStorage.49" }
%"class.llvm::SmallVectorImpl.46" = type { %"class.llvm::SmallVectorTemplateBase.47" }
%"class.llvm::SmallVectorTemplateBase.47" = type { %"class.llvm::SmallVectorTemplateCommon.48" }
%"class.llvm::SmallVectorTemplateCommon.48" = type { %"class.llvm::SmallVectorBase" }
%"struct.llvm::SmallVectorStorage.49" = type { [32 x i8] }
%"class.llvm::DenseMap" = type <{ ptr, i32, i32, i32, [4 x i8] }>
%"class.llvm::DbgValueHistoryMap" = type { %"class.llvm::MapVector" }
%"class.llvm::MapVector" = type { %"class.llvm::DenseMap.50", %"class.llvm::SmallVector.53" }
%"class.llvm::DenseMap.50" = type <{ ptr, i32, i32, i32, [4 x i8] }>
%"class.llvm::SmallVector.53" = type { %"class.llvm::SmallVectorImpl.54" }
%"class.llvm::SmallVectorImpl.54" = type { %"class.llvm::SmallVectorTemplateBase.55" }
%"class.llvm::SmallVectorTemplateBase.55" = type { %"class.llvm::SmallVectorTemplateCommon.56" }
%"class.llvm::SmallVectorTemplateCommon.56" = type { %"class.llvm::SmallVectorBase" }
%"class.llvm::DbgLabelInstrMap" = type { %"class.llvm::MapVector.58" }
%"class.llvm::MapVector.58" = type { %"class.llvm::DenseMap.50", %"class.llvm::SmallVector.59" }
%"class.llvm::SmallVector.59" = type { %"class.llvm::SmallVectorImpl.60" }
%"class.llvm::SmallVectorImpl.60" = type { %"class.llvm::SmallVectorTemplateBase.61" }
%"class.llvm::SmallVectorTemplateBase.61" = type { %"class.llvm::SmallVectorTemplateCommon.62" }
%"class.llvm::SmallVectorTemplateCommon.62" = type { %"class.llvm::SmallVectorBase" }
%"class.llvm::DenseMap.64" = type <{ ptr, i32, i32, i32, [4 x i8] }>
%"class.llvm::InstructionOrdering" = type { %"class.llvm::DenseMap.67" }
%"class.llvm::DenseMap.67" = type <{ ptr, i32, i32, i32, [4 x i8] }>
%"class.llvm::iterator_range" = type { %"class.llvm::Module::debug_compile_units_iterator", %"class.llvm::Module::debug_compile_units_iterator" }
%"class.llvm::Module::debug_compile_units_iterator" = type <{ ptr, i32, [4 x i8] }>

@.str.1 = private unnamed_addr constant [12 x i8] c"llvm.dbg.cu\00", align 1

; Function Attrs: mustprogress nounwind uwtable
define linkonce_odr hidden void @_ZN4llvm14iterator_rangeINS_6Module28debug_compile_units_iteratorEEC2ES2_S2_(ptr noundef nonnull align 8 dereferenceable(32) %0, ptr %1, i32 %2, ptr %3, i32 %4) unnamed_addr #1 comdat align 2 {
  %6 = alloca %"class.llvm::Module::debug_compile_units_iterator", align 8
  %7 = alloca %"class.llvm::Module::debug_compile_units_iterator", align 8
  %8 = alloca ptr, align 8
  %9 = getelementptr inbounds nuw { ptr, i32 }, ptr %6, i32 0, i32 0
  store ptr %1, ptr %9, align 8
  %10 = getelementptr inbounds nuw { ptr, i32 }, ptr %6, i32 0, i32 1
  store i32 %2, ptr %10, align 8
  %11 = getelementptr inbounds nuw { ptr, i32 }, ptr %7, i32 0, i32 0
  store ptr %3, ptr %11, align 8
  %12 = getelementptr inbounds nuw { ptr, i32 }, ptr %7, i32 0, i32 1
  store i32 %4, ptr %12, align 8
  store ptr %0, ptr %8, align 8
  %13 = load ptr, ptr %8, align 8
  %14 = getelementptr inbounds nuw %"class.llvm::iterator_range", ptr %13, i32 0, i32 0
  call void @llvm.memcpy.p0.p0.i64(ptr align 8 %14, ptr align 8 %6, i64 16, i1 false)
  %15 = getelementptr inbounds nuw %"class.llvm::iterator_range", ptr %13, i32 0, i32 1
  call void @llvm.memcpy.p0.p0.i64(ptr align 8 %15, ptr align 8 %7, i64 16, i1 false)
  ret void
}

; Function Attrs: mustprogress nounwind uwtable
define linkonce_odr hidden noundef i64 @_ZNSt11char_traitsIcE6lengthEPKc(ptr noundef %0) #1 comdat align 2 {
  %2 = alloca ptr, align 8
  store ptr %0, ptr %2, align 8
  %3 = load ptr, ptr %2, align 8
  %4 = call i64 @strlen(ptr noundef %3) #2
  ret i64 %4
}

; Function Attrs: mustprogress nounwind uwtable
define linkonce_odr hidden noundef zeroext i1 @_ZNK4llvm6Module28debug_compile_units_iteratoreqERKS1_(ptr noundef nonnull align 8 dereferenceable(12) %0, ptr noundef nonnull align 8 dereferenceable(12) %1) #1 comdat align 2 {
  %3 = alloca ptr, align 8
  %4 = alloca ptr, align 8
  store ptr %0, ptr %3, align 8
  store ptr %1, ptr %4, align 8
  %5 = load ptr, ptr %3, align 8
  %6 = getelementptr inbounds nuw %"class.llvm::Module::debug_compile_units_iterator", ptr %5, i32 0, i32 1
  %7 = load i32, ptr %6, align 8
  %8 = load ptr, ptr %4, align 8
  %9 = getelementptr inbounds nuw %"class.llvm::Module::debug_compile_units_iterator", ptr %8, i32 0, i32 1
  %10 = load i32, ptr %9, align 8
  %11 = icmp eq i32 %7, %10
  ret i1 %11
}

; Function Attrs: mustprogress nounwind uwtable
define linkonce_odr void @_ZN4llvm10make_rangeINS_6Module28debug_compile_units_iteratorEEENS_14iterator_rangeIT_EES4_S4_(ptr dead_on_unwind noalias writable sret(%"class.llvm::iterator_range") align 8 %0, ptr %1, i32 %2, ptr %3, i32 %4) #1 comdat {
  %6 = alloca %"class.llvm::Module::debug_compile_units_iterator", align 8
  %7 = alloca %"class.llvm::Module::debug_compile_units_iterator", align 8
  %8 = alloca %"class.llvm::Module::debug_compile_units_iterator", align 8
  %9 = alloca %"class.llvm::Module::debug_compile_units_iterator", align 8
  %10 = getelementptr inbounds nuw { ptr, i32 }, ptr %6, i32 0, i32 0
  store ptr %1, ptr %10, align 8
  %11 = getelementptr inbounds nuw { ptr, i32 }, ptr %6, i32 0, i32 1
  store i32 %2, ptr %11, align 8
  %12 = getelementptr inbounds nuw { ptr, i32 }, ptr %7, i32 0, i32 0
  store ptr %3, ptr %12, align 8
  %13 = getelementptr inbounds nuw { ptr, i32 }, ptr %7, i32 0, i32 1
  store i32 %4, ptr %13, align 8
  call void @llvm.memcpy.p0.p0.i64(ptr align 8 %8, ptr align 8 %6, i64 16, i1 false)
  call void @llvm.memcpy.p0.p0.i64(ptr align 8 %9, ptr align 8 %7, i64 16, i1 false)
  %14 = getelementptr inbounds nuw { ptr, i32 }, ptr %8, i32 0, i32 0
  %15 = load ptr, ptr %14, align 8
  %16 = getelementptr inbounds nuw { ptr, i32 }, ptr %8, i32 0, i32 1
  %17 = load i32, ptr %16, align 8
  %18 = getelementptr inbounds nuw { ptr, i32 }, ptr %9, i32 0, i32 0
  %19 = load ptr, ptr %18, align 8
  %20 = getelementptr inbounds nuw { ptr, i32 }, ptr %9, i32 0, i32 1
  %21 = load i32, ptr %20, align 8
  call void @_ZN4llvm14iterator_rangeINS_6Module28debug_compile_units_iteratorEEC2ES2_S2_(ptr noundef nonnull align 8 dereferenceable(32) %0, ptr %15, i32 %17, ptr %19, i32 %21)
  ret void
}

; Function Attrs: mustprogress nounwind uwtable
define linkonce_odr hidden void @_ZN4llvm6Module28debug_compile_units_iteratorC2EPNS_11NamedMDNodeEj(ptr noundef nonnull align 8 dereferenceable(12) %0, ptr noundef %1, i32 noundef %2) unnamed_addr #1 comdat align 2 {
  %4 = alloca ptr, align 8
  %5 = alloca ptr, align 8
  %6 = alloca i32, align 4
  store ptr %0, ptr %4, align 8
  store ptr %1, ptr %5, align 8
  store i32 %2, ptr %6, align 4
  %7 = load ptr, ptr %4, align 8
  %8 = getelementptr inbounds nuw %"class.llvm::Module::debug_compile_units_iterator", ptr %7, i32 0, i32 0
  %9 = load ptr, ptr %5, align 8
  store ptr %9, ptr %8, align 8
  %10 = getelementptr inbounds nuw %"class.llvm::Module::debug_compile_units_iterator", ptr %7, i32 0, i32 1
  %11 = load i32, ptr %6, align 4
  store i32 %11, ptr %10, align 8
  call void @_ZN4llvm6Module28debug_compile_units_iterator14SkipNoDebugCUsEv(ptr noundef nonnull align 8 dereferenceable(12) %7)
  ret void
}

; Function Attrs: mustprogress nounwind uwtable
define linkonce_odr hidden void @_ZN4llvm9StringRefC2EPKc(ptr noundef nonnull align 8 dereferenceable(16) %0, ptr noundef %1) unnamed_addr #1 comdat align 2 {
  %3 = alloca ptr, align 8
  %4 = alloca ptr, align 8
  store ptr %0, ptr %3, align 8
  store ptr %1, ptr %4, align 8
  %5 = load ptr, ptr %3, align 8
  %6 = getelementptr inbounds nuw %"class.llvm::StringRef", ptr %5, i32 0, i32 0
  %7 = load ptr, ptr %4, align 8
  store ptr %7, ptr %6, align 8
  %8 = getelementptr inbounds nuw %"class.llvm::StringRef", ptr %5, i32 0, i32 1
  %9 = load ptr, ptr %4, align 8
  %10 = icmp ne ptr %9, null
  br i1 %10, label %11, label %14

11:                                               ; preds = %2
  %12 = load ptr, ptr %4, align 8
  %13 = call noundef i64 @_ZNSt11char_traitsIcE6lengthEPKc(ptr noundef %12)
  br label %15

14:                                               ; preds = %2
  br label %15

15:                                               ; preds = %14, %11
  %16 = phi i64 [ %13, %11 ], [ 0, %14 ]
  store i64 %16, ptr %8, align 8
  ret void
}

; Function Attrs: mustprogress nounwind uwtable
define linkonce_odr hidden noundef zeroext i1 @_ZNK4llvm14iterator_rangeINS_6Module28debug_compile_units_iteratorEE5emptyEv(ptr noundef nonnull align 8 dereferenceable(32) %0) #1 comdat align 2 {
  %2 = alloca ptr, align 8
  store ptr %0, ptr %2, align 8
  %3 = load ptr, ptr %2, align 8
  %4 = getelementptr inbounds nuw %"class.llvm::iterator_range", ptr %3, i32 0, i32 0
  %5 = getelementptr inbounds nuw %"class.llvm::iterator_range", ptr %3, i32 0, i32 1
  %6 = call noundef zeroext i1 @_ZNK4llvm6Module28debug_compile_units_iteratoreqERKS1_(ptr noundef nonnull align 8 dereferenceable(12) %4, ptr noundef nonnull align 8 dereferenceable(12) %5)
  ret i1 %6
}

; Function Attrs: mustprogress nounwind uwtable
define linkonce_odr hidden void @_ZNK4llvm6Module19debug_compile_unitsEv(ptr dead_on_unwind noalias writable sret(%"class.llvm::iterator_range") align 8 %0, ptr noundef nonnull align 8 dereferenceable(857) %1) #1 comdat align 2 {
  %3 = alloca ptr, align 8
  %4 = alloca ptr, align 8
  %5 = alloca %"class.llvm::StringRef", align 8
  %6 = alloca %"class.llvm::Module::debug_compile_units_iterator", align 8
  %7 = alloca %"class.llvm::Module::debug_compile_units_iterator", align 8
  store ptr %1, ptr %3, align 8
  %8 = load ptr, ptr %3, align 8
  call void @_ZN4llvm9StringRefC2EPKc(ptr noundef nonnull align 8 dereferenceable(16) %5, ptr noundef @.str.1)
  %9 = getelementptr inbounds nuw { ptr, i64 }, ptr %5, i32 0, i32 0
  %10 = load ptr, ptr %9, align 8
  %11 = getelementptr inbounds nuw { ptr, i64 }, ptr %5, i32 0, i32 1
  %12 = load i64, ptr %11, align 8
  %13 = call noundef ptr @_ZNK4llvm6Module16getNamedMetadataENS_9StringRefE(ptr noundef nonnull align 8 dereferenceable(857) %8, ptr %10, i64 %12)
  store ptr %13, ptr %4, align 8
  %14 = load ptr, ptr %4, align 8
  call void @_ZN4llvm6Module28debug_compile_units_iteratorC2EPNS_11NamedMDNodeEj(ptr noundef nonnull align 8 dereferenceable(12) %6, ptr noundef %14, i32 noundef 0)
  %15 = load ptr, ptr %4, align 8
  %16 = load ptr, ptr %4, align 8
  %17 = icmp ne ptr %16, null
  br i1 %17, label %18, label %21

18:                                               ; preds = %2
  %19 = load ptr, ptr %4, align 8
  %20 = call noundef i32 @_ZNK4llvm11NamedMDNode14getNumOperandsEv(ptr noundef nonnull align 8 dereferenceable(64) %19)
  br label %22

21:                                               ; preds = %2
  br label %22

22:                                               ; preds = %21, %18
  %23 = phi i32 [ %20, %18 ], [ 0, %21 ]
  call void @_ZN4llvm6Module28debug_compile_units_iteratorC2EPNS_11NamedMDNodeEj(ptr noundef nonnull align 8 dereferenceable(12) %7, ptr noundef %15, i32 noundef %23)
  %24 = getelementptr inbounds nuw { ptr, i32 }, ptr %6, i32 0, i32 0
  %25 = load ptr, ptr %24, align 8
  %26 = getelementptr inbounds nuw { ptr, i32 }, ptr %6, i32 0, i32 1
  %27 = load i32, ptr %26, align 8
  %28 = getelementptr inbounds nuw { ptr, i32 }, ptr %7, i32 0, i32 0
  %29 = load ptr, ptr %28, align 8
  %30 = getelementptr inbounds nuw { ptr, i32 }, ptr %7, i32 0, i32 1
  %31 = load i32, ptr %30, align 8
  call void @_ZN4llvm10make_rangeINS_6Module28debug_compile_units_iteratorEEENS_14iterator_rangeIT_EES4_S4_(ptr dead_on_unwind writable sret(%"class.llvm::iterator_range") align 8 %0, ptr %25, i32 %27, ptr %29, i32 %31)
  ret void
}

; Function Attrs: mustprogress nounwind uwtable
define dso_local void @_ZN4llvm16DebugHandlerBase11beginModuleEPNS_6ModuleE(ptr noundef nonnull align 8 dereferenceable(480) %0, ptr noundef %1) unnamed_addr #1 align 2 {
  %3 = alloca ptr, align 8
  %4 = alloca ptr, align 8
  %5 = alloca %"class.llvm::iterator_range", align 8
  store ptr %0, ptr %3, align 8
  store ptr %1, ptr %4, align 8
  %6 = load ptr, ptr %3, align 8
  %7 = load ptr, ptr %4, align 8
  call void @_ZNK4llvm6Module19debug_compile_unitsEv(ptr dead_on_unwind writable sret(%"class.llvm::iterator_range") align 8 %5, ptr noundef nonnull align 8 dereferenceable(857) %7)
  %8 = call noundef zeroext i1 @_ZNK4llvm14iterator_rangeINS_6Module28debug_compile_units_iteratorEE5emptyEv(ptr noundef nonnull align 8 dereferenceable(32) %5)
  br i1 %8, label %9, label %11

9:                                                ; preds = %2
  %10 = getelementptr inbounds nuw %"class.llvm::DebugHandlerBase", ptr %6, i32 0, i32 1
  store ptr null, ptr %10, align 8
  br label %11

11:                                               ; preds = %9, %2
  ret void
}