; Function Attrs: mustprogress nounwind uwtable
define dso_local void @_ZN4llvm16DebugHandlerBase11beginModuleEPNS_6ModuleE(ptr noundef nonnull writeonly align 8 captures(none) dereferenceable(480) %0, ptr noundef nonnull %1) unnamed_addr #0 align 2 {
  %3 = alloca %"class.llvm::Module::debug_compile_units_iterator", align 8
  %4 = alloca %"class.llvm::Module::debug_compile_units_iterator", align 8
  call void @llvm.lifetime.start.p0(i64 16, ptr nonnull %3)
  call void @llvm.lifetime.start.p0(i64 16, ptr nonnull %4)
  %5 = tail call noundef ptr @_ZNK4llvm6Module16getNamedMetadataENS_9StringRefE(ptr noundef nonnull align 8 dereferenceable(857) %1, ptr nonnull @.str.1, i64 11) #16, !noalias !8
  store ptr %5, ptr %3, align 8, !noalias !8
  %6 = getelementptr inbounds nuw i8, ptr %3, i64 8
  store i32 0, ptr %6, align 8, !noalias !8
  call void @_ZN4llvm6Module28debug_compile_units_iterator14SkipNoDebugCUsEv(ptr noundef nonnull align 8 dereferenceable(12) %3) #16, !noalias !8
  %.not.i = icmp eq ptr %5, null
  br i1 %.not.i, label %_ZNK4llvm6Module19debug_compile_unitsEv.exit, label %.split.i

.split.i:                                         ; preds = %2
  %7 = call noundef i32 @_ZNK4llvm11NamedMDNode14getNumOperandsEv(ptr noundef nonnull align 8 dereferenceable(64) %5) #16, !noalias !8
  br label %_ZNK4llvm6Module19debug_compile_unitsEv.exit

_ZNK4llvm6Module19debug_compile_unitsEv.exit:     ; preds = %2, %.split.i
  %.sink.i = phi i32 [ %7, %.split.i ], [ 0, %2 ]
  store ptr %5, ptr %4, align 8, !noalias !8
  %8 = getelementptr inbounds nuw i8, ptr %4, i64 8
  store i32 %.sink.i, ptr %8, align 8, !noalias !8
  call void @_ZN4llvm6Module28debug_compile_units_iterator14SkipNoDebugCUsEv(ptr noundef nonnull align 8 dereferenceable(12) %4) #16, !noalias !8
  %9 = load i32, ptr %6, align 8, !noalias !8
  %10 = load i32, ptr %8, align 8, !noalias !8
  call void @llvm.lifetime.end.p0(i64 16, ptr nonnull %3)
  call void @llvm.lifetime.end.p0(i64 16, ptr nonnull %4)
  %11 = icmp eq i32 %9, %10
  br i1 %11, label %12, label %14

12:                                               ; preds = %_ZNK4llvm6Module19debug_compile_unitsEv.exit
  %13 = getelementptr inbounds nuw i8, ptr %0, i64 8
  store ptr null, ptr %13, align 8
  br label %14

14:                                               ; preds = %12, %_ZNK4llvm6Module19debug_compile_unitsEv.exit
  ret void
}